target datalayout = "e-m:e-p270:32:32-p271:32:32-p272:64:64-i64:64-i128:128-f80:128-n8:16:32:64-S128"
target triple = "x86_64-pc-linux-gnu"

%struct.bf_t = type { ptr, i32, i64, i64, ptr }

; Function Attrs: inlinehint nounwind uwtable
define internal i64 @bf_min(i64 noundef %0, i64 noundef %1) #3 {
  %3 = alloca i64, align 8
  %4 = alloca i64, align 8
  %5 = alloca i64, align 8
  store i64 %0, ptr %4, align 8, !tbaa !27
  store i64 %1, ptr %5, align 8, !tbaa !27
  %6 = load i64, ptr %4, align 8, !tbaa !27
  %7 = load i64, ptr %5, align 8, !tbaa !27
  %8 = icmp slt i64 %6, %7
  br i1 %8, label %9, label %11

9:                                                ; preds = %2
  %10 = load i64, ptr %4, align 8, !tbaa !27
  store i64 %10, ptr %3, align 8
  br label %13

11:                                               ; preds = %2
  %12 = load i64, ptr %5, align 8, !tbaa !27
  store i64 %12, ptr %3, align 8
  br label %13

13:                                               ; preds = %11, %9
  %14 = load i64, ptr %3, align 8
  ret i64 %14
}

; Function Attrs: inlinehint nounwind uwtable
define internal i64 @bf_max(i64 noundef %0, i64 noundef %1) #3 {
  %3 = alloca i64, align 8
  %4 = alloca i64, align 8
  %5 = alloca i64, align 8
  store i64 %0, ptr %4, align 8, !tbaa !27
  store i64 %1, ptr %5, align 8, !tbaa !27
  %6 = load i64, ptr %4, align 8, !tbaa !27
  %7 = load i64, ptr %5, align 8, !tbaa !27
  %8 = icmp sgt i64 %6, %7
  br i1 %8, label %9, label %11

9:                                                ; preds = %2
  %10 = load i64, ptr %4, align 8, !tbaa !27
  store i64 %10, ptr %3, align 8
  br label %13

11:                                               ; preds = %2
  %12 = load i64, ptr %5, align 8, !tbaa !27
  store i64 %12, ptr %3, align 8
  br label %13

13:                                               ; preds = %11, %9
  %14 = load i64, ptr %3, align 8
  ret i64 %14
}

; Function Attrs: nounwind uwtable
define dso_local i32 @bf_mul_2exp(ptr noundef %0, i64 noundef %1, i64 noundef %2, i32 noundef %3) #0 {
  %5 = alloca i32, align 4
  %6 = alloca ptr, align 8
  %7 = alloca i64, align 8
  %8 = alloca i64, align 8
  %9 = alloca i32, align 4
  %10 = alloca i64, align 8
  %11 = alloca i32, align 4
  store ptr %0, ptr %6, align 8, !tbaa !12
  store i64 %1, ptr %7, align 8, !tbaa !27
  store i64 %2, ptr %8, align 8, !tbaa !27
  store i32 %3, ptr %9, align 4, !tbaa !29
  call void @llvm.lifetime.start.p0(i64 8, ptr %10) #10
  %12 = load ptr, ptr %6, align 8, !tbaa !12
  %13 = getelementptr inbounds nuw %struct.bf_t, ptr %12, i32 0, i32 3
  %14 = load i64, ptr %13, align 8, !tbaa !25
  %15 = icmp eq i64 %14, 0
  br i1 %15, label %16, label %17

16:                                               ; preds = %4
  store i32 0, ptr %5, align 4
  store i32 1, ptr %11, align 4
  br label %37

17:                                               ; preds = %4
  store i64 4611686018427387903, ptr %10, align 8, !tbaa !27
  %18 = load i64, ptr %7, align 8, !tbaa !27
  %19 = load i64, ptr %10, align 8, !tbaa !27
  %20 = sub i64 0, %19
  %21 = call i64 @bf_max(i64 noundef %18, i64 noundef %20)
  store i64 %21, ptr %7, align 8, !tbaa !27
  %22 = load i64, ptr %7, align 8, !tbaa !27
  %23 = load i64, ptr %10, align 8, !tbaa !27
  %24 = call i64 @bf_min(i64 noundef %22, i64 noundef %23)
  store i64 %24, ptr %7, align 8, !tbaa !27
  %25 = load i64, ptr %7, align 8, !tbaa !27
  %26 = load ptr, ptr %6, align 8, !tbaa !12
  %27 = getelementptr inbounds nuw %struct.bf_t, ptr %26, i32 0, i32 2
  %28 = load i64, ptr %27, align 8, !tbaa !24
  %29 = add i64 %28, %25
  store i64 %29, ptr %27, align 8, !tbaa !24
  %30 = load ptr, ptr %6, align 8, !tbaa !12
  %31 = load i64, ptr %8, align 8, !tbaa !27
  %32 = load i32, ptr %9, align 4, !tbaa !29
  %33 = load ptr, ptr %6, align 8, !tbaa !12
  %34 = getelementptr inbounds nuw %struct.bf_t, ptr %33, i32 0, i32 3
  %35 = load i64, ptr %34, align 8, !tbaa !25
  %36 = call i32 @__bf_round(ptr noundef %30, i64 noundef %31, i32 noundef %32, i64 noundef %35, i32 noundef 0)
  store i32 %36, ptr %5, align 4
  store i32 1, ptr %11, align 4
  br label %37

37:                                               ; preds = %17, %16
  call void @llvm.lifetime.end.p0(i64 8, ptr %10) #10
  %38 = load i32, ptr %5, align 4
  ret i32 %38
}