; Function Attrs: nounwind uwtable
define dso_local range(i32 0, 33) i32 @bf_mul_2exp(ptr noundef captures(none) %0, i64 noundef %1, i64 noundef %2, i32 noundef %3) local_unnamed_addr #2 {
  %5 = getelementptr inbounds nuw i8, ptr %0, i64 24
  %6 = load i64, ptr %5, align 8, !tbaa !32
  %7 = icmp eq i64 %6, 0
  br i1 %7, label %13, label %8

8:                                                ; preds = %4
  %..i = tail call noundef i64 @llvm.smax.i64(i64 %1, i64 -4611686018427387903)
  %..i11 = tail call noundef i64 @llvm.smin.i64(i64 %..i, i64 4611686018427387903)
  %9 = getelementptr inbounds nuw i8, ptr %0, i64 16
  %10 = load i64, ptr %9, align 8, !tbaa !31
  %11 = add i64 %10, %..i11
  store i64 %11, ptr %9, align 8, !tbaa !31
  %12 = tail call fastcc i32 @__bf_round(ptr noundef nonnull %0, i64 noundef %2, i32 noundef %3, i64 noundef %6, i32 noundef 0)
  br label %13

13:                                               ; preds = %4, %8
  %.0 = phi i32 [ %12, %8 ], [ 0, %4 ]
  ret i32 %.0
}